target datalayout = "e-m:e-p270:32:32-p271:32:32-p272:64:64-i64:64-i128:128-f80:128-n8:16:32:64-S128"
target triple = "x86_64-pc-linux-gnu"

%union.SourceSpan = type { i64 }
%struct.Signature_ = type <{ %struct.CalleeAttributes, i16, i8, i32, i32, [4 x i8], ptr }>
%struct.CalleeAttributes = type { i8 }
%struct.Decl_ = type { ptr, ptr, %union.SourceSpan, i64, %union.anon, i32, %union.anon.0, i64, ptr, ptr, ptr, %union.anon.1 }
%union.anon = type { ptr }
%union.anon.0 = type { i16 }
%union.anon.1 = type { %struct.FuncDecl }
%struct.FuncDecl = type { i32, [4 x i8], %struct.Signature_, i32, i32, %union.anon.8 }
%union.anon.8 = type { %struct.anon.9 }
%struct.anon.9 = type { i16, %union.anon.10 }
%union.anon.10 = type { ptr }
%struct.VHeader_ = type { i32, i32, [0 x i8] }
%struct.Type_ = type { i32, ptr, ptr, ptr, %union.anon.85, ptr, ptr, %union.anon.87 }
%union.anon.85 = type { ptr }
%union.anon.87 = type { %struct.TypeFunction }
%struct.TypeFunction = type { ptr, ptr, ptr }

; Function Attrs: nounwind uwtable
define internal ptr @vec_new_(i64 noundef %0, i64 noundef %1) #0 {
  %3 = alloca i64, align 8
  %4 = alloca i64, align 8
  %5 = alloca ptr, align 8
  store i64 %0, ptr %3, align 8
  store i64 %1, ptr %4, align 8
  %6 = load i64, ptr %3, align 8
  %7 = load i64, ptr %4, align 8
  %8 = mul i64 %6, %7
  %9 = add i64 %8, 8
  %10 = call ptr @calloc_arena(i64 noundef %9)
  store ptr %10, ptr %5, align 8
  %11 = load i64, ptr %4, align 8
  %12 = trunc i64 %11 to i32
  %13 = load ptr, ptr %5, align 8
  %14 = getelementptr inbounds %struct.VHeader_, ptr %13, i32 0, i32 1
  store i32 %12, ptr %14, align 4
  %15 = load ptr, ptr %5, align 8
  ret ptr %15
}

; Function Attrs: nounwind uwtable
define internal ptr @expand_(ptr noundef %0, i64 noundef %1) #0 {
  %3 = alloca ptr, align 8
  %4 = alloca i64, align 8
  %5 = alloca ptr, align 8
  %6 = alloca ptr, align 8
  %7 = alloca i64, align 8
  store ptr %0, ptr %3, align 8
  store i64 %1, ptr %4, align 8
  %8 = load ptr, ptr %3, align 8
  %9 = icmp ne ptr %8, null
  br i1 %9, label %13, label %10

10:                                               ; preds = %2
  %11 = load i64, ptr %4, align 8
  %12 = call ptr @vec_new_(i64 noundef %11, i64 noundef 8)
  store ptr %12, ptr %5, align 8
  br label %16

13:                                               ; preds = %2
  %14 = load ptr, ptr %3, align 8
  %15 = getelementptr inbounds %struct.VHeader_, ptr %14, i64 -1
  store ptr %15, ptr %5, align 8
  br label %16

16:                                               ; preds = %13, %10
  %17 = load ptr, ptr %5, align 8
  %18 = getelementptr inbounds %struct.VHeader_, ptr %17, i32 0, i32 0
  %19 = load i32, ptr %18, align 4
  %20 = load ptr, ptr %5, align 8
  %21 = getelementptr inbounds %struct.VHeader_, ptr %20, i32 0, i32 1
  %22 = load i32, ptr %21, align 4
  %23 = icmp eq i32 %19, %22
  br i1 %23, label %24, label %49

24:                                               ; preds = %16
  %25 = load i64, ptr %4, align 8
  %26 = load ptr, ptr %5, align 8
  %27 = getelementptr inbounds %struct.VHeader_, ptr %26, i32 0, i32 1
  %28 = load i32, ptr %27, align 4
  %29 = shl i32 %28, 1
  %30 = zext i32 %29 to i64
  %31 = call ptr @vec_new_(i64 noundef %25, i64 noundef %30)
  store ptr %31, ptr %6, align 8
  %32 = load i64, ptr %4, align 8
  %33 = load ptr, ptr %5, align 8
  %34 = getelementptr inbounds %struct.VHeader_, ptr %33, i32 0, i32 1
  %35 = load i32, ptr %34, align 4
  %36 = zext i32 %35 to i64
  %37 = mul i64 %32, %36
  %38 = add i64 %37, 8
  store i64 %38, ptr %7, align 8
  %39 = load ptr, ptr %6, align 8
  %40 = load ptr, ptr %5, align 8
  %41 = load i64, ptr %7, align 8
  call void @llvm.memcpy.p0.p0.i64(ptr align 4 %39, ptr align 4 %40, i64 %41, i1 false)
  %42 = load ptr, ptr %6, align 8
  store ptr %42, ptr %5, align 8
  %43 = load ptr, ptr %5, align 8
  %44 = getelementptr inbounds %struct.VHeader_, ptr %43, i32 0, i32 1
  %45 = load i32, ptr %44, align 4
  %46 = shl i32 %45, 1
  %47 = load ptr, ptr %6, align 8
  %48 = getelementptr inbounds %struct.VHeader_, ptr %47, i32 0, i32 1
  store i32 %46, ptr %48, align 4
  br label %49

49:                                               ; preds = %24, %16
  %50 = load ptr, ptr %5, align 8
  %51 = getelementptr inbounds %struct.VHeader_, ptr %50, i32 0, i32 0
  %52 = load i32, ptr %51, align 4
  %53 = add i32 %52, 1
  store i32 %53, ptr %51, align 4
  %54 = load ptr, ptr %5, align 8
  %55 = getelementptr inbounds %struct.VHeader_, ptr %54, i64 1
  ret ptr %55
}

; Function Attrs: nounwind uwtable
define internal void @vec_pop(ptr noundef %0) #0 {
  %2 = alloca ptr, align 8
  %3 = alloca ptr, align 8
  store ptr %0, ptr %2, align 8
  %4 = load ptr, ptr %2, align 8
  store ptr %4, ptr %3, align 8
  %5 = load ptr, ptr %3, align 8
  %6 = getelementptr inbounds %struct.VHeader_, ptr %5, i64 -1
  %7 = getelementptr inbounds %struct.VHeader_, ptr %6, i32 0, i32 0
  %8 = load i32, ptr %7, align 4
  %9 = add i32 %8, -1
  store i32 %9, ptr %7, align 4
  ret void
}

; Function Attrs: nounwind uwtable
define dso_local zeroext i1 @sema_analyse_function_signature(ptr noundef %0, ptr noundef %1, i32 noundef %2, ptr noundef %3) #0 {
  %5 = alloca i32, align 4
  %6 = alloca ptr, align 8
  %7 = alloca ptr, align 8
  %8 = alloca i32, align 4
  %9 = alloca ptr, align 8
  %10 = alloca ptr, align 8
  %11 = alloca i1, align 1
  %12 = alloca ptr, align 8
  %13 = alloca ptr, align 8
  %14 = alloca i32, align 4
  %15 = alloca ptr, align 8
  %16 = alloca ptr, align 8
  %17 = alloca i32, align 4
  %18 = alloca ptr, align 8
  %19 = alloca i8, align 1
  %20 = alloca i32, align 4
  %21 = alloca i32, align 4
  %22 = alloca ptr, align 8
  %23 = alloca ptr, align 8
  store ptr %0, ptr %12, align 8
  store ptr %1, ptr %13, align 8
  store i32 %2, ptr %14, align 4
  store ptr %3, ptr %15, align 8
  %24 = load ptr, ptr %15, align 8
  %25 = getelementptr inbounds %struct.Signature_, ptr %24, i32 0, i32 6
  %26 = load ptr, ptr %25, align 8
  store ptr %26, ptr %16, align 8
  %27 = load ptr, ptr %12, align 8
  %28 = load ptr, ptr %15, align 8
  %29 = load ptr, ptr %13, align 8
  %30 = getelementptr inbounds %struct.Decl_, ptr %29, i32 0, i32 11
  %31 = getelementptr inbounds %struct.FuncDecl, ptr %30, i32 0, i32 0
  %32 = load i32, ptr %31, align 8
  %33 = call zeroext i1 @sema_analyse_signature(ptr noundef %27, ptr noundef %28, i32 noundef %32)
  br i1 %33, label %35, label %34

34:                                               ; preds = %4
  store i1 false, ptr %11, align 1
  br label %110

35:                                               ; preds = %4
  %36 = load ptr, ptr %15, align 8
  %37 = getelementptr inbounds %struct.Signature_, ptr %36, i32 0, i32 1
  %38 = load i16, ptr %37, align 1
  %39 = lshr i16 %38, 3
  %40 = and i16 %39, 7
  %41 = zext i16 %40 to i32
  store i32 %41, ptr %17, align 4
  %42 = load i32, ptr %17, align 4
  %43 = icmp eq i32 %42, 3
  br i1 %43, label %44, label %46

44:                                               ; preds = %35
  %45 = load ptr, ptr %16, align 8
  call void @vec_pop(ptr noundef %45)
  br label %46

46:                                               ; preds = %44, %35
  store ptr null, ptr %18, align 8
  store i8 1, ptr %19, align 1
  %47 = load ptr, ptr %16, align 8
  store ptr %47, ptr %6, align 8
  %48 = load ptr, ptr %6, align 8
  %49 = icmp ne ptr %48, null
  br i1 %49, label %51, label %50

50:                                               ; preds = %46
  store i32 0, ptr %5, align 4
  br label %56

51:                                               ; preds = %46
  %52 = load ptr, ptr %6, align 8
  store ptr %52, ptr %7, align 8
  %53 = load ptr, ptr %7, align 8
  %54 = getelementptr inbounds %struct.VHeader_, ptr %53, i64 -1
  %55 = load i32, ptr %54, align 4
  store i32 %55, ptr %5, align 4
  br label %56

56:                                               ; preds = %51, %50
  %57 = load i32, ptr %5, align 4
  store i32 %57, ptr %20, align 4
  store i32 0, ptr %21, align 4
  br label %58

58:                                               ; preds = %90, %56
  %59 = load i32, ptr %21, align 4
  %60 = load i32, ptr %20, align 4
  %61 = icmp ult i32 %59, %60
  br i1 %61, label %62, label %93

62:                                               ; preds = %58
  br label %63

63:                                               ; preds = %62
  %64 = load ptr, ptr %18, align 8
  %65 = call ptr @expand_(ptr noundef %64, i64 noundef 8)
  store ptr %65, ptr %22, align 8
  %66 = load ptr, ptr %22, align 8
  store ptr %66, ptr %18, align 8
  %67 = load ptr, ptr %16, align 8
  %68 = load i32, ptr %21, align 4
  %69 = zext i32 %68 to i64
  %70 = getelementptr inbounds ptr, ptr %67, i64 %69
  %71 = load ptr, ptr %70, align 8
  %72 = getelementptr inbounds %struct.Decl_, ptr %71, i32 0, i32 10
  %73 = load ptr, ptr %72, align 8
  %74 = load ptr, ptr %18, align 8
  %75 = load ptr, ptr %18, align 8
  store ptr %75, ptr %9, align 8
  %76 = load ptr, ptr %9, align 8
  %77 = icmp ne ptr %76, null
  br i1 %77, label %79, label %78

78:                                               ; preds = %63
  store i32 0, ptr %8, align 4
  br label %84

79:                                               ; preds = %63
  %80 = load ptr, ptr %9, align 8
  store ptr %80, ptr %10, align 8
  %81 = load ptr, ptr %10, align 8
  %82 = getelementptr inbounds %struct.VHeader_, ptr %81, i64 -1
  %83 = load i32, ptr %82, align 4
  store i32 %83, ptr %8, align 4
  br label %84

84:                                               ; preds = %79, %78
  %85 = load i32, ptr %8, align 4
  %86 = sub i32 %85, 1
  %87 = zext i32 %86 to i64
  %88 = getelementptr inbounds ptr, ptr %74, i64 %87
  store ptr %73, ptr %88, align 8
  br label %89

89:                                               ; preds = %84
  br label %90

90:                                               ; preds = %89
  %91 = load i32, ptr %21, align 4
  %92 = add i32 %91, 1
  store i32 %92, ptr %21, align 4
  br label %58, !llvm.loop !7

93:                                               ; preds = %58
  %94 = load i8, ptr %19, align 1
  %95 = trunc i8 %94 to i1
  br i1 %95, label %97, label %96

96:                                               ; preds = %93
  store i1 false, ptr %11, align 1
  br label %110

97:                                               ; preds = %93
  %98 = load ptr, ptr %15, align 8
  %99 = load i32, ptr %14, align 4
  %100 = call ptr @type_get_func(ptr noundef %98, i32 noundef %99)
  store ptr %100, ptr %23, align 8
  %101 = load ptr, ptr %23, align 8
  %102 = getelementptr inbounds %struct.Type_, ptr %101, i32 0, i32 7
  %103 = getelementptr inbounds %struct.TypeFunction, ptr %102, i32 0, i32 2
  %104 = load ptr, ptr %103, align 8
  %105 = load ptr, ptr %13, align 8
  %106 = getelementptr inbounds %struct.Decl_, ptr %105, i32 0, i32 10
  %107 = load ptr, ptr %106, align 8
  %108 = getelementptr inbounds %struct.Type_, ptr %107, i32 0, i32 7
  %109 = getelementptr inbounds %struct.TypeFunction, ptr %108, i32 0, i32 2
  store ptr %104, ptr %109, align 8
  store i1 true, ptr %11, align 1
  br label %110

110:                                              ; preds = %97, %96, %34
  %111 = load i1, ptr %11, align 1
  ret i1 %111
}