; Function Attrs: nounwind uwtable
define dso_local noundef zeroext i1 @sema_analyse_function_signature(ptr noundef %0, ptr nocapture noundef readonly %1, i32 noundef %2, ptr noundef %3) local_unnamed_addr #0 {
  %5 = getelementptr inbounds i8, ptr %3, i64 16
  %6 = load ptr, ptr %5, align 8
  %7 = getelementptr inbounds i8, ptr %1, i64 80
  %8 = load i32, ptr %7, align 8
  %9 = tail call fastcc zeroext i1 @sema_analyse_signature(ptr noundef %0, ptr noundef %3, i32 noundef %8)
  br i1 %9, label %10, label %59

10:                                               ; preds = %4
  %11 = getelementptr inbounds i8, ptr %3, i64 1
  %12 = load i16, ptr %11, align 1
  %13 = and i16 %12, 56
  %14 = icmp eq i16 %13, 24
  br i1 %14, label %.thread, label %18

.thread:                                          ; preds = %10
  %15 = getelementptr inbounds i8, ptr %6, i64 -8
  %16 = load i32, ptr %15, align 4
  %17 = add i32 %16, -1
  store i32 %17, ptr %15, align 4
  br label %19

18:                                               ; preds = %10
  %.not = icmp eq ptr %6, null
  br i1 %.not, label %._crit_edge, label %._crit_edge42

._crit_edge42:                                    ; preds = %18
  %.phi.trans.insert = getelementptr inbounds i8, ptr %6, i64 -8
  %.pre = load i32, ptr %.phi.trans.insert, align 4
  br label %19

19:                                               ; preds = %.thread, %._crit_edge42
  %.0 = phi i32 [ %.pre, %._crit_edge42 ], [ %17, %.thread ]
  %.not40 = icmp eq i32 %.0, 0
  br i1 %.not40, label %._crit_edge, label %.lr.ph.preheader

.lr.ph.preheader:                                 ; preds = %19
  %wide.trip.count = zext i32 %.0 to i64
  br label %.lr.ph

.lr.ph:                                           ; preds = %.lr.ph.preheader, %43
  %indvars.iv = phi i64 [ 0, %.lr.ph.preheader ], [ %indvars.iv.next, %43 ]
  %.03338 = phi ptr [ null, %.lr.ph.preheader ], [ %46, %43 ]
  %.not.i = icmp eq ptr %.03338, null
  br i1 %.not.i, label %20, label %23

20:                                               ; preds = %.lr.ph
  %21 = tail call ptr @calloc_arena(i64 noundef 72) #10
  %22 = getelementptr inbounds i8, ptr %21, i64 4
  store i32 8, ptr %22, align 4
  br label %25

23:                                               ; preds = %.lr.ph
  %24 = getelementptr inbounds i8, ptr %.03338, i64 -8
  %.phi.trans.insert.i = getelementptr inbounds i8, ptr %.03338, i64 -4
  %.pre.i = load i32, ptr %.phi.trans.insert.i, align 4
  br label %25

25:                                               ; preds = %23, %20
  %26 = phi i32 [ %.pre.i, %23 ], [ 8, %20 ]
  %.0.i = phi ptr [ %24, %23 ], [ %21, %20 ]
  %27 = load i32, ptr %.0.i, align 4
  %28 = icmp eq i32 %27, %26
  br i1 %28, label %29, label %43

29:                                               ; preds = %25
  %30 = getelementptr inbounds i8, ptr %.0.i, i64 4
  %31 = shl i32 %26, 1
  %32 = zext i32 %31 to i64
  %33 = shl nuw nsw i64 %32, 3
  %34 = or disjoint i64 %33, 8
  %35 = tail call ptr @calloc_arena(i64 noundef %34) #10
  %36 = getelementptr inbounds i8, ptr %35, i64 4
  store i32 %31, ptr %36, align 4
  %37 = load i32, ptr %30, align 4
  %38 = zext i32 %37 to i64
  %39 = shl nuw nsw i64 %38, 3
  %40 = add nuw nsw i64 %39, 8
  tail call void @llvm.memcpy.p0.p0.i64(ptr noundef nonnull align 4 dereferenceable(1) %35, ptr noundef nonnull align 4 dereferenceable(1) %.0.i, i64 %40, i1 false)
  %41 = load i32, ptr %36, align 4
  %42 = shl i32 %41, 1
  store i32 %42, ptr %36, align 4
  %.pre18.i = load i32, ptr %35, align 4
  br label %43

43:                                               ; preds = %25, %29
  %44 = phi i32 [ %.pre18.i, %29 ], [ %27, %25 ]
  %.1.i = phi ptr [ %35, %29 ], [ %.0.i, %25 ]
  %45 = add i32 %44, 1
  store i32 %45, ptr %.1.i, align 4
  %46 = getelementptr inbounds i8, ptr %.1.i, i64 8
  %47 = getelementptr inbounds ptr, ptr %6, i64 %indvars.iv
  %48 = load ptr, ptr %47, align 8
  %49 = getelementptr inbounds i8, ptr %48, i64 72
  %50 = load ptr, ptr %49, align 8
  %51 = zext i32 %44 to i64
  %52 = getelementptr inbounds ptr, ptr %46, i64 %51
  store ptr %50, ptr %52, align 8
  %indvars.iv.next = add nuw nsw i64 %indvars.iv, 1
  %exitcond.not = icmp eq i64 %indvars.iv.next, %wide.trip.count
  br i1 %exitcond.not, label %._crit_edge, label %.lr.ph, !llvm.loop !7

._crit_edge:                                      ; preds = %43, %18, %19
  %53 = tail call ptr @type_get_func(ptr noundef %3, i32 noundef %2) #10
  %54 = getelementptr inbounds i8, ptr %53, i64 72
  %55 = load ptr, ptr %54, align 8
  %56 = getelementptr inbounds i8, ptr %1, i64 72
  %57 = load ptr, ptr %56, align 8
  %58 = getelementptr inbounds i8, ptr %57, i64 72
  store ptr %55, ptr %58, align 8
  br label %59

59:                                               ; preds = %4, %._crit_edge
  ret i1 %9
}